target datalayout = "e-m:e-p270:32:32-p271:32:32-p272:64:64-i64:64-i128:128-f80:128-n8:16:32:64-S128"
target triple = "x86_64-pc-linux-gnu"

%struct.CMS_RecipientInfo_st = type { i32, %union.anon }
%union.anon = type { ptr }
%struct.CMS_PasswordRecipientInfo_st = type { i32, ptr, ptr, ptr, ptr, i64, ptr }

@.str = private unnamed_addr constant [33 x i8] c"../openssl/crypto/cms/cms_pwri.c\00", align 1
@__func__.CMS_RecipientInfo_set0_password = private unnamed_addr constant [32 x i8] c"CMS_RecipientInfo_set0_password\00", align 1

; Function Attrs: nounwind uwtable
define i32 @CMS_RecipientInfo_set0_password(ptr noundef %0, ptr noundef %1, i64 noundef %2) #0 {
  %4 = alloca i32, align 4
  %5 = alloca ptr, align 8
  %6 = alloca ptr, align 8
  %7 = alloca i64, align 8
  %8 = alloca ptr, align 8
  %9 = alloca i32, align 4
  store ptr %0, ptr %5, align 8, !tbaa !3
  store ptr %1, ptr %6, align 8, !tbaa !8
  store i64 %2, ptr %7, align 8, !tbaa !10
  call void @llvm.lifetime.start.p0(i64 8, ptr %8) #6
  %10 = load ptr, ptr %5, align 8, !tbaa !3
  %11 = getelementptr inbounds nuw %struct.CMS_RecipientInfo_st, ptr %10, i32 0, i32 0
  %12 = load i32, ptr %11, align 8, !tbaa !12
  %13 = icmp ne i32 %12, 3
  br i1 %13, label %14, label %15

14:                                               ; preds = %3
  call void @ERR_new()
  call void @ERR_set_debug(ptr noundef @.str, i32 noundef 27, ptr noundef @__func__.CMS_RecipientInfo_set0_password)
  call void (i32, i32, ptr, ...) @ERR_set_error(i32 noundef 46, i32 noundef 177, ptr noundef null)
  store i32 0, ptr %4, align 4
  store i32 1, ptr %9, align 4
  br label %34

15:                                               ; preds = %3
  %16 = load ptr, ptr %5, align 8, !tbaa !3
  %17 = getelementptr inbounds nuw %struct.CMS_RecipientInfo_st, ptr %16, i32 0, i32 1
  %18 = load ptr, ptr %17, align 8, !tbaa !15
  store ptr %18, ptr %8, align 8, !tbaa !16
  %19 = load ptr, ptr %6, align 8, !tbaa !8
  %20 = load ptr, ptr %8, align 8, !tbaa !16
  %21 = getelementptr inbounds nuw %struct.CMS_PasswordRecipientInfo_st, ptr %20, i32 0, i32 4
  store ptr %19, ptr %21, align 8, !tbaa !18
  %22 = load ptr, ptr %6, align 8, !tbaa !8
  %23 = icmp ne ptr %22, null
  br i1 %23, label %24, label %30

24:                                               ; preds = %15
  %25 = load i64, ptr %7, align 8, !tbaa !10
  %26 = icmp slt i64 %25, 0
  br i1 %26, label %27, label %30

27:                                               ; preds = %24
  %28 = load ptr, ptr %6, align 8, !tbaa !8
  %29 = call i64 @strlen(ptr noundef %28) #7
  store i64 %29, ptr %7, align 8, !tbaa !10
  br label %30

30:                                               ; preds = %27, %24, %15
  %31 = load i64, ptr %7, align 8, !tbaa !10
  %32 = load ptr, ptr %8, align 8, !tbaa !16
  %33 = getelementptr inbounds nuw %struct.CMS_PasswordRecipientInfo_st, ptr %32, i32 0, i32 5
  store i64 %31, ptr %33, align 8, !tbaa !23
  store i32 1, ptr %4, align 4
  store i32 1, ptr %9, align 4
  br label %34

34:                                               ; preds = %30, %14
  call void @llvm.lifetime.end.p0(i64 8, ptr %8) #6
  %35 = load i32, ptr %4, align 4
  ret i32 %35
}