; Function Attrs: nounwind uwtable
define range(i32 0, 2) i32 @CMS_RecipientInfo_set0_password(ptr noundef readonly captures(none) %0, ptr noundef %1, i64 noundef %2) local_unnamed_addr #0 {
  %4 = load i32, ptr %0, align 8, !tbaa !3
  %.not = icmp eq i32 %4, 3
  br i1 %.not, label %6, label %5

5:                                                ; preds = %3
  tail call void @ERR_new() #5
  tail call void @ERR_set_debug(ptr noundef nonnull @.str, i32 noundef 27, ptr noundef nonnull @__func__.CMS_RecipientInfo_set0_password) #5
  tail call void (i32, i32, ptr, ...) @ERR_set_error(i32 noundef 46, i32 noundef 177, ptr noundef null) #5
  br label %16

6:                                                ; preds = %3
  %7 = getelementptr inbounds nuw i8, ptr %0, i64 8
  %8 = load ptr, ptr %7, align 8, !tbaa !8
  %9 = getelementptr inbounds nuw i8, ptr %8, i64 32
  store ptr %1, ptr %9, align 8, !tbaa !9
  %10 = icmp ne ptr %1, null
  %11 = icmp slt i64 %2, 0
  %or.cond = and i1 %10, %11
  br i1 %or.cond, label %12, label %14

12:                                               ; preds = %6
  %13 = tail call i64 @strlen(ptr noundef nonnull dereferenceable(1) %1) #6
  br label %14

14:                                               ; preds = %12, %6
  %.010 = phi i64 [ %13, %12 ], [ %2, %6 ]
  %15 = getelementptr inbounds nuw i8, ptr %8, i64 40
  store i64 %.010, ptr %15, align 8, !tbaa !17
  br label %16

16:                                               ; preds = %14, %5
  %.0 = phi i32 [ 0, %5 ], [ 1, %14 ]
  ret i32 %.0
}